; Function Attrs: mustprogress uwtable
define hidden void @_ZN4cvc58internal6theory11quantifiers19ConjectureGenerator7EqcInfoC2EPNS_7context7ContextE(ptr noundef nonnull align 8 dereferenceable(48) %0, ptr noundef %1) unnamed_addr #3 align 2 personality ptr @__gxx_personality_v0 {
  %3 = alloca %"class.cvc5::internal::NodeTemplate.3", align 8
  call void @llvm.lifetime.start.p0(i64 8, ptr nonnull %3) #29
  tail call void @llvm.experimental.noalias.scope.decl(metadata !345)
  %4 = load ptr, ptr @_ZN4cvc58internal12NodeTemplateILb1EE6s_nullE, align 8, !tbaa !11, !noalias !345
  store ptr %4, ptr %3, align 8, !tbaa !11, !alias.scope !345
  %5 = load i64, ptr %4, align 8, !noalias !345
  %6 = lshr i64 %5, 40
  %7 = trunc nuw nsw i64 %6 to i32
  %8 = and i32 %7, 1048575
  %9 = icmp samesign ult i32 %8, 1048574
  br i1 %9, label %10, label %15, !prof !33

10:                                               ; preds = %2
  %11 = add i64 %5, 1099511627776
  %12 = and i64 %11, 1152920405095219200
  %13 = and i64 %5, -1152920405095219201
  %14 = or disjoint i64 %12, %13
  store i64 %14, ptr %4, align 8, !noalias !345
  br label %_ZN4cvc58internal12NodeTemplateILb1EE4nullEv.exit

15:                                               ; preds = %2
  %16 = icmp eq i32 %8, 1048574
  br i1 %16, label %17, label %_ZN4cvc58internal12NodeTemplateILb1EE4nullEv.exit, !prof !15

17:                                               ; preds = %15
  %18 = or i64 %5, 1152920405095219200
  store i64 %18, ptr %4, align 8, !noalias !345
  tail call void @_ZN4cvc58internal4expr9NodeValue20markRefCountMaxedOutEv(ptr noundef nonnull align 8 dereferenceable(24) %4), !noalias !345
  br label %_ZN4cvc58internal12NodeTemplateILb1EE4nullEv.exit

_ZN4cvc58internal12NodeTemplateILb1EE4nullEv.exit: ; preds = %10, %15, %17
  invoke void @_ZN4cvc57context3CDOINS_8internal12NodeTemplateILb1EEEEC2EPNS0_7ContextERKS4_(ptr noundef nonnull align 8 dereferenceable(48) %0, ptr noundef %1, ptr noundef nonnull align 8 dereferenceable(8) %3)
          to label %19 unwind label %33

19:                                               ; preds = %_ZN4cvc58internal12NodeTemplateILb1EE4nullEv.exit
  %20 = load ptr, ptr %3, align 8, !tbaa !11
  %21 = load i64, ptr %20, align 8
  %22 = and i64 %21, 1152920405095219200
  %.not.i.i = icmp eq i64 %22, 1152920405095219200
  br i1 %.not.i.i, label %_ZN4cvc58internal12NodeTemplateILb1EED2Ev.exit, label %23, !prof !15

23:                                               ; preds = %19
  %24 = add i64 %21, 1152920405095219200
  %25 = and i64 %24, 1152920405095219200
  %26 = and i64 %21, -1152920405095219201
  %27 = or disjoint i64 %25, %26
  store i64 %27, ptr %20, align 8
  %28 = icmp eq i64 %25, 0
  br i1 %28, label %29, label %_ZN4cvc58internal12NodeTemplateILb1EED2Ev.exit, !prof !15

29:                                               ; preds = %23
  invoke void @_ZN4cvc58internal4expr9NodeValue15markForDeletionEv(ptr noundef nonnull align 8 dereferenceable(24) %20)
          to label %_ZN4cvc58internal12NodeTemplateILb1EED2Ev.exit unwind label %30

30:                                               ; preds = %29
  %31 = landingpad { ptr, i32 }
          catch ptr null
  %32 = extractvalue { ptr, i32 } %31, 0
  call void @__clang_call_terminate(ptr %32) #30
  unreachable

_ZN4cvc58internal12NodeTemplateILb1EED2Ev.exit:   ; preds = %19, %23, %29
  call void @llvm.lifetime.end.p0(i64 8, ptr nonnull %3) #29
  ret void

33:                                               ; preds = %_ZN4cvc58internal12NodeTemplateILb1EE4nullEv.exit
  %34 = landingpad { ptr, i32 }
          cleanup
  call void @_ZN4cvc58internal12NodeTemplateILb1EED2Ev(ptr noundef nonnull align 8 dereferenceable(8) %3) #29
  call void @llvm.lifetime.end.p0(i64 8, ptr nonnull %3) #29
  resume { ptr, i32 } %34
}